target datalayout = "e-m:e-p270:32:32-p271:32:32-p272:64:64-i64:64-i128:128-f80:128-n8:16:32:64-S128"
target triple = "x86_64-pc-linux-gnu"

%struct.Pool = type { %"class.std::__cxx11::basic_string", i32, i32, %"class.std::set" }
%"class.std::__cxx11::basic_string" = type { %"struct.std::__cxx11::basic_string<char>::_Alloc_hider", i64, %union.anon }
%"struct.std::__cxx11::basic_string<char>::_Alloc_hider" = type { ptr }
%union.anon = type { i64, [8 x i8] }
%"class.std::set" = type { %"class.std::_Rb_tree" }
%"class.std::_Rb_tree" = type { %"struct.std::_Rb_tree<Edge *, Edge *, std::_Identity<Edge *>, Pool::WeightedEdgeCmp>::_Rb_tree_impl" }
%"struct.std::_Rb_tree<Edge *, Edge *, std::_Identity<Edge *>, Pool::WeightedEdgeCmp>::_Rb_tree_impl" = type { %"struct.std::_Rb_tree_key_compare", %"struct.std::_Rb_tree_header" }
%"struct.std::_Rb_tree_key_compare" = type { %"struct.Pool::WeightedEdgeCmp" }
%"struct.Pool::WeightedEdgeCmp" = type { i8 }
%"struct.std::_Rb_tree_header" = type { %"struct.std::_Rb_tree_node_base", i64 }
%"struct.std::_Rb_tree_node_base" = type { i32, ptr, ptr, ptr }

; Function Attrs: mustprogress nounwind uwtable
define linkonce_odr dso_local noundef i32 @_ZNK4Edge6weightEv(ptr noundef nonnull align 8 dereferenceable(156) %0) #1 comdat align 2 {
  %2 = alloca ptr, align 8
  store ptr %0, ptr %2, align 8
  ret i32 1
}

; Function Attrs: mustprogress uwtable
define dso_local void @_ZN4Pool12EdgeFinishedERK4Edge(ptr noundef nonnull align 8 dereferenceable(88) %0, ptr noundef nonnull align 8 dereferenceable(156) %1) #0 align 2 {
  %3 = alloca ptr, align 8
  %4 = alloca ptr, align 8
  store ptr %0, ptr %3, align 8
  store ptr %1, ptr %4, align 8
  %5 = load ptr, ptr %3, align 8
  %6 = getelementptr inbounds %struct.Pool, ptr %5, i32 0, i32 2
  %7 = load i32, ptr %6, align 4
  %8 = icmp ne i32 %7, 0
  br i1 %8, label %9, label %15

9:                                                ; preds = %2
  %10 = load ptr, ptr %4, align 8
  %11 = call noundef i32 @_ZNK4Edge6weightEv(ptr noundef nonnull align 8 dereferenceable(156) %10)
  %12 = getelementptr inbounds %struct.Pool, ptr %5, i32 0, i32 1
  %13 = load i32, ptr %12, align 8
  %14 = sub nsw i32 %13, %11
  store i32 %14, ptr %12, align 8
  br label %15

15:                                               ; preds = %9, %2
  ret void
}